target datalayout = "e-m:e-p270:32:32-p271:32:32-p272:64:64-i64:64-i128:128-f80:128-n8:16:32:64-S128"
target triple = "x86_64-pc-linux-gnu"

%struct.__va_list_tag = type { i32, i32, ptr, ptr }

; Function Attrs: noreturn nounwind uwtable
define void @zend_error_noreturn(i32 noundef %0, ptr noundef %1, ...) #7 {
  %3 = alloca i32, align 4
  %4 = alloca ptr, align 8
  %5 = alloca ptr, align 8
  %6 = alloca i32, align 4
  %7 = alloca [1 x %struct.__va_list_tag], align 16
  store i32 %0, ptr %3, align 4
  store ptr %1, ptr %4, align 8
  br label %8

8:                                                ; preds = %2
  %9 = load i32, ptr %3, align 4
  call void @get_filename_lineno(i32 noundef %9, ptr noundef %5, ptr noundef %6)
  %10 = getelementptr inbounds [1 x %struct.__va_list_tag], ptr %7, i64 0, i64 0
  call void @llvm.va_start(ptr %10)
  %11 = load i32, ptr %3, align 4
  %12 = load ptr, ptr %5, align 8
  %13 = load i32, ptr %6, align 4
  %14 = load ptr, ptr %4, align 8
  %15 = getelementptr inbounds [1 x %struct.__va_list_tag], ptr %7, i64 0, i64 0
  call void @zend_error_va_list(i32 noundef %11, ptr noundef %12, i32 noundef %13, ptr noundef %14, ptr noundef %15)
  %16 = getelementptr inbounds [1 x %struct.__va_list_tag], ptr %7, i64 0, i64 0
  call void @llvm.va_end(ptr %16)
  call void @abort() #20
  unreachable

17:                                               ; No predecessors!
  unreachable
}