; Function Attrs: noreturn nounwind uwtable
define void @zend_error_noreturn(i32 noundef %0, ptr noundef %1, ...) local_unnamed_addr #12 {
  %3 = alloca ptr, align 8
  %4 = alloca i32, align 4
  %5 = alloca [1 x %struct.__va_list_tag], align 16
  call fastcc void @get_filename_lineno(i32 noundef %0, ptr noundef nonnull %3, ptr noundef nonnull %4)
  call void @llvm.va_start(ptr nonnull %5)
  %6 = load ptr, ptr %3, align 8
  %7 = load i32, ptr %4, align 4
  call fastcc void @zend_error_va_list(i32 noundef %0, ptr noundef %6, i32 noundef %7, ptr noundef %1, ptr noundef nonnull %5)
  call void @llvm.va_end(ptr nonnull %5)
  call void @abort() #34
  unreachable
}